; ModuleID = '30/1475.cpp'
source_filename = "30/1475.cpp"
target datalayout = "e-m:e-p270:32:32-p271:32:32-p272:64:64-i64:64-f80:128-n8:16:32:64-S128"
target triple = "x86_64-pc-linux-gnu"

%"class.std::ios_base::Init" = type { i8 }
%"class.std::basic_istream" = type { i32 (...)**, i64, %"class.std::basic_ios" }
%"class.std::basic_ios" = type { %"class.std::ios_base", %"class.std::basic_ostream"*, i8, i8, %"class.std::basic_streambuf"*, %"class.std::ctype"*, %"class.std::num_put"*, %"class.std::num_get"* }
%"class.std::ios_base" = type { i32 (...)**, i64, i64, i32, i32, i32, %"struct.std::ios_base::_Callback_list"*, %"struct.std::ios_base::_Words", [8 x %"struct.std::ios_base::_Words"], i32, %"struct.std::ios_base::_Words"*, %"class.std::locale" }
%"struct.std::ios_base::_Callback_list" = type { %"struct.std::ios_base::_Callback_list"*, void (i32, %"class.std::ios_base"*, i32)*, i32, i32 }
%"struct.std::ios_base::_Words" = type { i8*, i64 }
%"class.std::locale" = type { %"class.std::locale::_Impl"* }
%"class.std::locale::_Impl" = type { i32, %"class.std::locale::facet"**, i64, %"class.std::locale::facet"**, i8** }
%"class.std::locale::facet" = type <{ i32 (...)**, i32, [4 x i8] }>
%"class.std::basic_ostream" = type { i32 (...)**, %"class.std::basic_ios" }
%"class.std::basic_streambuf" = type { i32 (...)**, i8*, i8*, i8*, i8*, i8*, i8*, %"class.std::locale" }
%"class.std::ctype" = type <{ %"class.std::locale::facet.base", [4 x i8], %struct.__locale_struct*, i8, [7 x i8], i32*, i32*, i16*, i8, [256 x i8], [256 x i8], i8, [6 x i8] }>
%"class.std::locale::facet.base" = type <{ i32 (...)**, i32 }>
%struct.__locale_struct = type { [13 x %struct.__locale_data*], i16*, i32*, i32*, [13 x i8*] }
%struct.__locale_data = type opaque
%"class.std::num_put" = type { %"class.std::locale::facet.base", [4 x i8] }
%"class.std::num_get" = type { %"class.std::locale::facet.base", [4 x i8] }

@_ZStL8__ioinit = internal global %"class.std::ios_base::Init" zeroinitializer, align 1
@__dso_handle = external hidden global i8
@_ZSt3cin = external dso_local global %"class.std::basic_istream", align 8
@_ZSt4cout = external dso_local global %"class.std::basic_ostream", align 8
@llvm.global_ctors = appending global [1 x { i32, void ()*, i8* }] [{ i32, void ()*, i8* } { i32 65535, void ()* @_GLOBAL__sub_I_1475.cpp, i8* null }]

; Function Attrs: noinline uwtable
define internal void @__cxx_global_var_init() #0 section ".text.startup" {
  call void @_ZNSt8ios_base4InitC1Ev(%"class.std::ios_base::Init"* @_ZStL8__ioinit)
  %1 = call i32 @__cxa_atexit(void (i8*)* bitcast (void (%"class.std::ios_base::Init"*)* @_ZNSt8ios_base4InitD1Ev to void (i8*)*), i8* getelementptr inbounds (%"class.std::ios_base::Init", %"class.std::ios_base::Init"* @_ZStL8__ioinit, i32 0, i32 0), i8* @__dso_handle) #3
  ret void
}

declare dso_local void @_ZNSt8ios_base4InitC1Ev(%"class.std::ios_base::Init"*) unnamed_addr #1

; Function Attrs: nounwind
declare dso_local void @_ZNSt8ios_base4InitD1Ev(%"class.std::ios_base::Init"*) unnamed_addr #2

; Function Attrs: nounwind
declare dso_local i32 @__cxa_atexit(void (i8*)*, i8*, i8*) #3

; Function Attrs: noinline norecurse uwtable
define dso_local i32 @main() #4 {
  %1 = alloca i32, align 4
  %2 = alloca i32, align 4
  %3 = alloca i32, align 4
  %4 = alloca i32, align 4
  store i32 0, i32* %1, align 4
  store i32 1, i32* %3, align 4
  store i32 0, i32* %4, align 4
  %5 = call dereferenceable(280) %"class.std::basic_istream"* @_ZNSirsERi(%"class.std::basic_istream"* @_ZSt3cin, i32* dereferenceable(4) %2)
  br label %6

6:                                                ; preds = %72, %0
  %7 = load i32, i32* %3, align 4
  %8 = srem i32 %7, 7
  %9 = icmp eq i32 %8, 0
  br i1 %9, label %34, label %10

10:                                               ; preds = %6
  %11 = load i32, i32* %3, align 4
  %12 = icmp eq i32 %11, 17
  br i1 %12, label %34, label %13

13:                                               ; preds = %10
  %14 = load i32, i32* %3, align 4
  %15 = icmp eq i32 %14, 27
  br i1 %15, label %34, label %16

16:                                               ; preds = %13
  %17 = load i32, i32* %3, align 4
  %18 = icmp eq i32 %17, 37
  br i1 %18, label %34, label %19

19:                                               ; preds = %16
  %20 = load i32, i32* %3, align 4
  %21 = icmp eq i32 %20, 47
  br i1 %21, label %34, label %22

22:                                               ; preds = %19
  %23 = load i32, i32* %3, align 4
  %24 = icmp eq i32 %23, 57
  br i1 %24, label %34, label %25

25:                                               ; preds = %22
  %26 = load i32, i32* %3, align 4
  %27 = icmp eq i32 %26, 67
  br i1 %27, label %34, label %28

28:                                               ; preds = %25
  %29 = load i32, i32* %3, align 4
  %30 = icmp eq i32 %29, 87
  br i1 %30, label %34, label %31

31:                                               ; preds = %28
  %32 = load i32, i32* %3, align 4
  %33 = icmp eq i32 %32, 97
  br i1 %33, label %34, label %36

34:                                               ; preds = %31, %28, %25, %22, %19, %16, %13, %10, %6
  %35 = load i32, i32* %4, align 4
  store i32 %35, i32* %4, align 4
  br label %69

36:                                               ; preds = %31
  %37 = load i32, i32* %3, align 4
  %38 = icmp eq i32 %37, 71
  br i1 %38, label %60, label %39

39:                                               ; preds = %36
  %40 = load i32, i32* %3, align 4
  %41 = icmp eq i32 %40, 72
  br i1 %41, label %60, label %42

42:                                               ; preds = %39
  %43 = load i32, i32* %3, align 4
  %44 = icmp eq i32 %43, 73
  br i1 %44, label %60, label %45

45:                                               ; preds = %42
  %46 = load i32, i32* %3, align 4
  %47 = icmp eq i32 %46, 74
  br i1 %47, label %60, label %48

48:                                               ; preds = %45
  %49 = load i32, i32* %3, align 4
  %50 = icmp eq i32 %49, 75
  br i1 %50, label %60, label %51

51:                                               ; preds = %48
  %52 = load i32, i32* %3, align 4
  %53 = icmp eq i32 %52, 76
  br i1 %53, label %60, label %54

54:                                               ; preds = %51
  %55 = load i32, i32* %3, align 4
  %56 = icmp eq i32 %55, 78
  br i1 %56, label %60, label %57

57:                                               ; preds = %54
  %58 = load i32, i32* %3, align 4
  %59 = icmp eq i32 %58, 79
  br i1 %59, label %60, label %62

60:                                               ; preds = %57, %54, %51, %48, %45, %42, %39, %36
  %61 = load i32, i32* %4, align 4
  store i32 %61, i32* %4, align 4
  br label %68

62:                                               ; preds = %57
  %63 = load i32, i32* %4, align 4
  %64 = load i32, i32* %3, align 4
  %65 = load i32, i32* %3, align 4
  %66 = mul nsw i32 %64, %65
  %67 = add nsw i32 %63, %66
  store i32 %67, i32* %4, align 4
  br label %68

68:                                               ; preds = %62, %60
  br label %69

69:                                               ; preds = %68, %34
  %70 = load i32, i32* %3, align 4
  %71 = add nsw i32 %70, 1
  store i32 %71, i32* %3, align 4
  br label %72

72:                                               ; preds = %69
  %73 = load i32, i32* %3, align 4
  %74 = load i32, i32* %2, align 4
  %75 = icmp sle i32 %73, %74
  br i1 %75, label %6, label %76

76:                                               ; preds = %72
  %77 = load i32, i32* %4, align 4
  %78 = call dereferenceable(272) %"class.std::basic_ostream"* @_ZNSolsEi(%"class.std::basic_ostream"* @_ZSt4cout, i32 %77)
  %79 = call dereferenceable(272) %"class.std::basic_ostream"* @_ZNSolsEPFRSoS_E(%"class.std::basic_ostream"* %78, %"class.std::basic_ostream"* (%"class.std::basic_ostream"*)* @_ZSt4endlIcSt11char_traitsIcEERSt13basic_ostreamIT_T0_ES6_)
  ret i32 0
}

declare dso_local dereferenceable(280) %"class.std::basic_istream"* @_ZNSirsERi(%"class.std::basic_istream"*, i32* dereferenceable(4)) #1

declare dso_local dereferenceable(272) %"class.std::basic_ostream"* @_ZNSolsEi(%"class.std::basic_ostream"*, i32) #1

declare dso_local dereferenceable(272) %"class.std::basic_ostream"* @_ZNSolsEPFRSoS_E(%"class.std::basic_ostream"*, %"class.std::basic_ostream"* (%"class.std::basic_ostream"*)*) #1

declare dso_local dereferenceable(272) %"class.std::basic_ostream"* @_ZSt4endlIcSt11char_traitsIcEERSt13basic_ostreamIT_T0_ES6_(%"class.std::basic_ostream"* dereferenceable(272)) #1

; Function Attrs: noinline uwtable
define internal void @_GLOBAL__sub_I_1475.cpp() #0 section ".text.startup" {
  call void @__cxx_global_var_init()
  ret void
}


!llvm.module.flags = !{!0}
!llvm.ident = !{!1}

!0 = !{i32 1, !"wchar_size", i32 4}
!1 = !{!"clang version 10.0.0-4ubuntu1 "}
